target datalayout = "e-m:e-p270:32:32-p271:32:32-p272:64:64-i64:64-i128:128-f80:128-n8:16:32:64-S128"
target triple = "x86_64-pc-linux-gnu"

%"class.duckdb::BaseStatistics" = type { %"struct.duckdb::LogicalType", i8, i8, i64, %union.anon, %"class.duckdb::unique_ptr" }
%"struct.duckdb::LogicalType" = type { i8, i8, %"class.duckdb::shared_ptr" }
%"class.duckdb::shared_ptr" = type { %"class.std::shared_ptr" }
%"class.std::shared_ptr" = type { %"class.std::__shared_ptr" }
%"class.std::__shared_ptr" = type { ptr, %"class.std::__shared_count" }
%"class.std::__shared_count" = type { ptr }
%union.anon = type { %"struct.duckdb::NumericStatsData" }
%"struct.duckdb::NumericStatsData" = type { i8, i8, %"struct.duckdb::NumericValueUnion", %"struct.duckdb::NumericValueUnion" }
%"struct.duckdb::NumericValueUnion" = type { %"union.duckdb::NumericValueUnion::Val" }
%"union.duckdb::NumericValueUnion::Val" = type { %"struct.duckdb::hugeint_t" }
%"struct.duckdb::hugeint_t" = type { i64, i64 }
%"class.duckdb::unique_ptr" = type { %"class.std::unique_ptr" }
%"class.std::unique_ptr" = type { %"struct.std::__uniq_ptr_data" }
%"struct.std::__uniq_ptr_data" = type { %"class.std::__uniq_ptr_impl" }
%"class.std::__uniq_ptr_impl" = type { %"class.std::tuple" }
%"class.std::tuple" = type { %"struct.std::_Tuple_impl" }
%"struct.std::_Tuple_impl" = type { %"struct.std::_Head_base.1" }
%"struct.std::_Head_base.1" = type { ptr }
%class.anon.114 = type { ptr, ptr }
%class.anon.115 = type { ptr, ptr }

@.str.27 = private unnamed_addr constant [4 x i8] c"max\00", align 1
@.str.28 = private unnamed_addr constant [4 x i8] c"min\00", align 1

; Function Attrs: mustprogress nounwind uwtable
define linkonce_odr noundef nonnull align 8 dereferenceable(24) ptr @_ZNK6duckdb14BaseStatistics7GetTypeEv(ptr noundef nonnull align 8 dereferenceable(88) %0) #6 comdat align 2 {
  %2 = alloca ptr, align 8
  store ptr %0, ptr %2, align 8, !tbaa !3
  %3 = load ptr, ptr %2, align 8
  %4 = getelementptr inbounds nuw %"class.duckdb::BaseStatistics", ptr %3, i32 0, i32 0
  ret ptr %4
}

; Function Attrs: inlinehint mustprogress uwtable
define internal void @"_ZZN6duckdb12NumericStats11DeserializeERNS_12DeserializerERNS_14BaseStatisticsEENK3$_1clES2_"(ptr noundef nonnull align 8 dereferenceable(16) %0, ptr noundef nonnull align 8 dereferenceable(632) %1) #12 align 2 {
  %3 = alloca ptr, align 8
  %4 = alloca ptr, align 8
  store ptr %0, ptr %3, align 8, !tbaa !95
  store ptr %1, ptr %4, align 8, !tbaa !91
  %5 = load ptr, ptr %3, align 8
  %6 = getelementptr inbounds nuw %class.anon.115, ptr %5, i32 0, i32 0
  %7 = load ptr, ptr %6, align 8, !tbaa !618
  %8 = call noundef nonnull align 8 dereferenceable(24) ptr @_ZNK6duckdb14BaseStatistics7GetTypeEv(ptr noundef nonnull align 8 dereferenceable(88) %7)
  %9 = getelementptr inbounds nuw %class.anon.115, ptr %5, i32 0, i32 1
  %10 = load ptr, ptr %9, align 8, !tbaa !620
  %11 = getelementptr inbounds nuw %"struct.duckdb::NumericStatsData", ptr %10, i32 0, i32 3
  %12 = getelementptr inbounds nuw %class.anon.115, ptr %5, i32 0, i32 1
  %13 = load ptr, ptr %12, align 8, !tbaa !620
  %14 = getelementptr inbounds nuw %"struct.duckdb::NumericStatsData", ptr %13, i32 0, i32 1
  %15 = load ptr, ptr %4, align 8, !tbaa !91
  call void @_ZN6duckdbL28DeserializeNumericStatsValueERKNS_11LogicalTypeERNS_17NumericValueUnionERbRNS_12DeserializerE(ptr noundef nonnull align 8 dereferenceable(24) %8, ptr noundef nonnull align 8 dereferenceable(16) %11, ptr noundef nonnull align 1 dereferenceable(1) %14, ptr noundef nonnull align 8 dereferenceable(632) %15)
  ret void
}

; Function Attrs: inlinehint mustprogress uwtable
define internal void @"_ZZN6duckdb12NumericStats11DeserializeERNS_12DeserializerERNS_14BaseStatisticsEENK3$_0clES2_"(ptr noundef nonnull align 8 dereferenceable(16) %0, ptr noundef nonnull align 8 dereferenceable(632) %1) #12 align 2 {
  %3 = alloca ptr, align 8
  %4 = alloca ptr, align 8
  store ptr %0, ptr %3, align 8, !tbaa !95
  store ptr %1, ptr %4, align 8, !tbaa !91
  %5 = load ptr, ptr %3, align 8
  %6 = getelementptr inbounds nuw %class.anon.114, ptr %5, i32 0, i32 0
  %7 = load ptr, ptr %6, align 8, !tbaa !615
  %8 = call noundef nonnull align 8 dereferenceable(24) ptr @_ZNK6duckdb14BaseStatistics7GetTypeEv(ptr noundef nonnull align 8 dereferenceable(88) %7)
  %9 = getelementptr inbounds nuw %class.anon.114, ptr %5, i32 0, i32 1
  %10 = load ptr, ptr %9, align 8, !tbaa !617
  %11 = getelementptr inbounds nuw %"struct.duckdb::NumericStatsData", ptr %10, i32 0, i32 2
  %12 = getelementptr inbounds nuw %class.anon.114, ptr %5, i32 0, i32 1
  %13 = load ptr, ptr %12, align 8, !tbaa !617
  %14 = getelementptr inbounds nuw %"struct.duckdb::NumericStatsData", ptr %13, i32 0, i32 0
  %15 = load ptr, ptr %4, align 8, !tbaa !91
  call void @_ZN6duckdbL28DeserializeNumericStatsValueERKNS_11LogicalTypeERNS_17NumericValueUnionERbRNS_12DeserializerE(ptr noundef nonnull align 8 dereferenceable(24) %8, ptr noundef nonnull align 8 dereferenceable(16) %11, ptr noundef nonnull align 1 dereferenceable(1) %14, ptr noundef nonnull align 8 dereferenceable(632) %15)
  ret void
}

; Function Attrs: mustprogress uwtable
define internal void @"_ZN6duckdb12Deserializer10ReadObjectIZNS_12NumericStats11DeserializeERS0_RNS_14BaseStatisticsEE3$_1EEvtPKcT_"(ptr noundef nonnull align 8 dereferenceable(632) %0, i16 noundef zeroext %1, ptr noundef %2, ptr %3, ptr %4) #4 align 2 {
  %6 = alloca %class.anon.115, align 8
  %7 = alloca ptr, align 8
  %8 = alloca i16, align 2
  %9 = alloca ptr, align 8
  %10 = getelementptr inbounds nuw { ptr, ptr }, ptr %6, i32 0, i32 0
  store ptr %3, ptr %10, align 8
  %11 = getelementptr inbounds nuw { ptr, ptr }, ptr %6, i32 0, i32 1
  store ptr %4, ptr %11, align 8
  store ptr %0, ptr %7, align 8, !tbaa !91
  store i16 %1, ptr %8, align 2, !tbaa !82
  store ptr %2, ptr %9, align 8, !tbaa !74
  %12 = load ptr, ptr %7, align 8
  %13 = load i16, ptr %8, align 2, !tbaa !82
  %14 = load ptr, ptr %9, align 8, !tbaa !74
  %15 = load ptr, ptr %12, align 8, !tbaa !86
  %16 = getelementptr inbounds ptr, ptr %15, i64 2
  %17 = load ptr, ptr %16, align 8
  call void %17(ptr noundef nonnull align 8 dereferenceable(632) %12, i16 noundef zeroext %13, ptr noundef %14)
  %18 = load ptr, ptr %12, align 8, !tbaa !86
  %19 = getelementptr inbounds ptr, ptr %18, i64 6
  %20 = load ptr, ptr %19, align 8
  call void %20(ptr noundef nonnull align 8 dereferenceable(632) %12)
  call void @"_ZZN6duckdb12NumericStats11DeserializeERNS_12DeserializerERNS_14BaseStatisticsEENK3$_1clES2_"(ptr noundef nonnull align 8 dereferenceable(16) %6, ptr noundef nonnull align 8 dereferenceable(632) %12)
  %21 = load ptr, ptr %12, align 8, !tbaa !86
  %22 = getelementptr inbounds ptr, ptr %21, i64 7
  %23 = load ptr, ptr %22, align 8
  call void %23(ptr noundef nonnull align 8 dereferenceable(632) %12)
  %24 = load ptr, ptr %12, align 8, !tbaa !86
  %25 = getelementptr inbounds ptr, ptr %24, i64 3
  %26 = load ptr, ptr %25, align 8
  call void %26(ptr noundef nonnull align 8 dereferenceable(632) %12)
  ret void
}

; Function Attrs: mustprogress uwtable
define internal void @"_ZN6duckdb12Deserializer10ReadObjectIZNS_12NumericStats11DeserializeERS0_RNS_14BaseStatisticsEE3$_0EEvtPKcT_"(ptr noundef nonnull align 8 dereferenceable(632) %0, i16 noundef zeroext %1, ptr noundef %2, ptr %3, ptr %4) #4 align 2 {
  %6 = alloca %class.anon.114, align 8
  %7 = alloca ptr, align 8
  %8 = alloca i16, align 2
  %9 = alloca ptr, align 8
  %10 = getelementptr inbounds nuw { ptr, ptr }, ptr %6, i32 0, i32 0
  store ptr %3, ptr %10, align 8
  %11 = getelementptr inbounds nuw { ptr, ptr }, ptr %6, i32 0, i32 1
  store ptr %4, ptr %11, align 8
  store ptr %0, ptr %7, align 8, !tbaa !91
  store i16 %1, ptr %8, align 2, !tbaa !82
  store ptr %2, ptr %9, align 8, !tbaa !74
  %12 = load ptr, ptr %7, align 8
  %13 = load i16, ptr %8, align 2, !tbaa !82
  %14 = load ptr, ptr %9, align 8, !tbaa !74
  %15 = load ptr, ptr %12, align 8, !tbaa !86
  %16 = getelementptr inbounds ptr, ptr %15, i64 2
  %17 = load ptr, ptr %16, align 8
  call void %17(ptr noundef nonnull align 8 dereferenceable(632) %12, i16 noundef zeroext %13, ptr noundef %14)
  %18 = load ptr, ptr %12, align 8, !tbaa !86
  %19 = getelementptr inbounds ptr, ptr %18, i64 6
  %20 = load ptr, ptr %19, align 8
  call void %20(ptr noundef nonnull align 8 dereferenceable(632) %12)
  call void @"_ZZN6duckdb12NumericStats11DeserializeERNS_12DeserializerERNS_14BaseStatisticsEENK3$_0clES2_"(ptr noundef nonnull align 8 dereferenceable(16) %6, ptr noundef nonnull align 8 dereferenceable(632) %12)
  %21 = load ptr, ptr %12, align 8, !tbaa !86
  %22 = getelementptr inbounds ptr, ptr %21, i64 7
  %23 = load ptr, ptr %22, align 8
  call void %23(ptr noundef nonnull align 8 dereferenceable(632) %12)
  %24 = load ptr, ptr %12, align 8, !tbaa !86
  %25 = getelementptr inbounds ptr, ptr %24, i64 3
  %26 = load ptr, ptr %25, align 8
  call void %26(ptr noundef nonnull align 8 dereferenceable(632) %12)
  ret void
}

; Function Attrs: mustprogress nounwind uwtable
define noundef nonnull align 8 dereferenceable(40) ptr @_ZN6duckdb12NumericStats13GetDataUnsafeERNS_14BaseStatisticsE(ptr noundef nonnull align 8 dereferenceable(88) %0) #6 align 2 {
  %2 = alloca ptr, align 8
  store ptr %0, ptr %2, align 8, !tbaa !3
  %3 = load ptr, ptr %2, align 8, !tbaa !3
  %4 = getelementptr inbounds nuw %"class.duckdb::BaseStatistics", ptr %3, i32 0, i32 4
  ret ptr %4
}

; Function Attrs: mustprogress uwtable
define void @_ZN6duckdb12NumericStats11DeserializeERNS_12DeserializerERNS_14BaseStatisticsE(ptr noundef nonnull align 8 dereferenceable(632) %0, ptr noundef nonnull align 8 dereferenceable(88) %1) #4 align 2 {
  %3 = alloca ptr, align 8
  %4 = alloca ptr, align 8
  %5 = alloca ptr, align 8
  %6 = alloca %class.anon.114, align 8
  %7 = alloca %class.anon.115, align 8
  store ptr %0, ptr %3, align 8, !tbaa !91
  store ptr %1, ptr %4, align 8, !tbaa !3
  call void @llvm.lifetime.start.p0(i64 8, ptr %5) #3
  %8 = load ptr, ptr %4, align 8, !tbaa !3
  %9 = call noundef nonnull align 8 dereferenceable(40) ptr @_ZN6duckdb12NumericStats13GetDataUnsafeERNS_14BaseStatisticsE(ptr noundef nonnull align 8 dereferenceable(88) %8)
  store ptr %9, ptr %5, align 8, !tbaa !153
  %10 = load ptr, ptr %3, align 8, !tbaa !91
  %11 = getelementptr inbounds nuw %class.anon.114, ptr %6, i32 0, i32 0
  %12 = load ptr, ptr %4, align 8, !tbaa !3
  store ptr %12, ptr %11, align 8, !tbaa !3
  %13 = getelementptr inbounds nuw %class.anon.114, ptr %6, i32 0, i32 1
  %14 = load ptr, ptr %5, align 8, !tbaa !153
  store ptr %14, ptr %13, align 8, !tbaa !153
  %15 = getelementptr inbounds nuw { ptr, ptr }, ptr %6, i32 0, i32 0
  %16 = load ptr, ptr %15, align 8
  %17 = getelementptr inbounds nuw { ptr, ptr }, ptr %6, i32 0, i32 1
  %18 = load ptr, ptr %17, align 8
  call void @"_ZN6duckdb12Deserializer10ReadObjectIZNS_12NumericStats11DeserializeERS0_RNS_14BaseStatisticsEE3$_0EEvtPKcT_"(ptr noundef nonnull align 8 dereferenceable(632) %10, i16 noundef zeroext 200, ptr noundef @.str.27, ptr %16, ptr %18)
  %19 = load ptr, ptr %3, align 8, !tbaa !91
  %20 = getelementptr inbounds nuw %class.anon.115, ptr %7, i32 0, i32 0
  %21 = load ptr, ptr %4, align 8, !tbaa !3
  store ptr %21, ptr %20, align 8, !tbaa !3
  %22 = getelementptr inbounds nuw %class.anon.115, ptr %7, i32 0, i32 1
  %23 = load ptr, ptr %5, align 8, !tbaa !153
  store ptr %23, ptr %22, align 8, !tbaa !153
  %24 = getelementptr inbounds nuw { ptr, ptr }, ptr %7, i32 0, i32 0
  %25 = load ptr, ptr %24, align 8
  %26 = getelementptr inbounds nuw { ptr, ptr }, ptr %7, i32 0, i32 1
  %27 = load ptr, ptr %26, align 8
  call void @"_ZN6duckdb12Deserializer10ReadObjectIZNS_12NumericStats11DeserializeERS0_RNS_14BaseStatisticsEE3$_1EEvtPKcT_"(ptr noundef nonnull align 8 dereferenceable(632) %19, i16 noundef zeroext 201, ptr noundef @.str.28, ptr %25, ptr %27)
  call void @llvm.lifetime.end.p0(i64 8, ptr %5) #3
  ret void
}