; Function Attrs: mustprogress uwtable
define void @_ZN6duckdb12NumericStats11DeserializeERNS_12DeserializerERNS_14BaseStatisticsE(ptr noundef nonnull align 8 dereferenceable(632) %0, ptr noundef nonnull align 8 captures(none) dereferenceable(88) %1) local_unnamed_addr #3 align 2 {
  %3 = getelementptr inbounds nuw i8, ptr %1, i64 40
  %4 = load ptr, ptr %0, align 8, !tbaa !38
  %5 = getelementptr inbounds nuw i8, ptr %4, i64 16
  %6 = load ptr, ptr %5, align 8
  tail call void %6(ptr noundef nonnull align 8 dereferenceable(632) %0, i16 noundef zeroext 200, ptr noundef nonnull @.str.27)
  %7 = load ptr, ptr %0, align 8, !tbaa !38
  %8 = getelementptr inbounds nuw i8, ptr %7, i64 48
  %9 = load ptr, ptr %8, align 8
  tail call void %9(ptr noundef nonnull align 8 dereferenceable(632) %0)
  %10 = getelementptr inbounds nuw i8, ptr %1, i64 48
  tail call fastcc void @_ZN6duckdbL28DeserializeNumericStatsValueERKNS_11LogicalTypeERNS_17NumericValueUnionERbRNS_12DeserializerE(ptr noundef nonnull readonly align 8 dereferenceable(24) %1, ptr noundef nonnull align 8 dereferenceable(16) %10, ptr noundef nonnull align 1 dereferenceable(1) %3, ptr noundef nonnull align 8 dereferenceable(632) %0)
  %11 = load ptr, ptr %0, align 8, !tbaa !38
  %12 = getelementptr inbounds nuw i8, ptr %11, i64 56
  %13 = load ptr, ptr %12, align 8
  tail call void %13(ptr noundef nonnull align 8 dereferenceable(632) %0)
  %14 = load ptr, ptr %0, align 8, !tbaa !38
  %15 = getelementptr inbounds nuw i8, ptr %14, i64 24
  %16 = load ptr, ptr %15, align 8
  tail call void %16(ptr noundef nonnull align 8 dereferenceable(632) %0)
  %17 = load ptr, ptr %0, align 8, !tbaa !38
  %18 = getelementptr inbounds nuw i8, ptr %17, i64 16
  %19 = load ptr, ptr %18, align 8
  tail call void %19(ptr noundef nonnull align 8 dereferenceable(632) %0, i16 noundef zeroext 201, ptr noundef nonnull @.str.28)
  %20 = load ptr, ptr %0, align 8, !tbaa !38
  %21 = getelementptr inbounds nuw i8, ptr %20, i64 48
  %22 = load ptr, ptr %21, align 8
  tail call void %22(ptr noundef nonnull align 8 dereferenceable(632) %0)
  %23 = getelementptr inbounds nuw i8, ptr %1, i64 64
  %24 = getelementptr inbounds nuw i8, ptr %1, i64 41
  tail call fastcc void @_ZN6duckdbL28DeserializeNumericStatsValueERKNS_11LogicalTypeERNS_17NumericValueUnionERbRNS_12DeserializerE(ptr noundef nonnull readonly align 8 dereferenceable(24) %1, ptr noundef nonnull align 8 dereferenceable(16) %23, ptr noundef nonnull align 1 dereferenceable(1) %24, ptr noundef nonnull align 8 dereferenceable(632) %0)
  %25 = load ptr, ptr %0, align 8, !tbaa !38
  %26 = getelementptr inbounds nuw i8, ptr %25, i64 56
  %27 = load ptr, ptr %26, align 8
  tail call void %27(ptr noundef nonnull align 8 dereferenceable(632) %0)
  %28 = load ptr, ptr %0, align 8, !tbaa !38
  %29 = getelementptr inbounds nuw i8, ptr %28, i64 24
  %30 = load ptr, ptr %29, align 8
  tail call void %30(ptr noundef nonnull align 8 dereferenceable(632) %0)
  ret void
}